; Function Attrs: mustprogress nofree norecurse nosync nounwind willreturn memory(read, inaccessiblemem: none) uwtable
define dso_local noundef zeroext i1 @_ZNK4llvm13StackLifetime11isReachableEPKNS_11InstructionE(ptr nocapture noundef nonnull readonly align 8 dereferenceable(1329) %0, ptr nocapture noundef readonly %1) local_unnamed_addr #0 align 2 {
  %3 = getelementptr inbounds nuw i8, ptr %0, i64 568
  %4 = getelementptr inbounds i8, ptr %1, i64 40
  %5 = load ptr, ptr %4, align 8
  %6 = load ptr, ptr %3, align 8
  %7 = getelementptr inbounds i8, ptr %0, i64 584
  %8 = load i32, ptr %7, align 8
  %9 = icmp eq i32 %8, 0
  br i1 %9, label %_ZNK4llvm12DenseMapBaseINS_8DenseMapIPKNS_10BasicBlockESt4pairIjjENS_12DenseMapInfoIS4_vEENS_6detail12DenseMapPairIS4_S6_EEEES4_S6_S8_SB_E8containsES4_.exit, label %10

10:                                               ; preds = %2
  %11 = ptrtoint ptr %5 to i64
  %12 = trunc i64 %11 to i32
  %13 = lshr i32 %12, 4
  %14 = lshr i32 %12, 9
  %15 = xor i32 %13, %14
  %16 = add i32 %8, -1
  %.01618.i.i.i = and i32 %15, %16
  %17 = zext nneg i32 %.01618.i.i.i to i64
  %18 = getelementptr inbounds %"struct.llvm::detail::DenseMapPair.20", ptr %6, i64 %17
  %19 = load ptr, ptr %18, align 8
  %20 = icmp eq ptr %5, %19
  br i1 %20, label %_ZNK4llvm12DenseMapBaseINS_8DenseMapIPKNS_10BasicBlockESt4pairIjjENS_12DenseMapInfoIS4_vEENS_6detail12DenseMapPairIS4_S6_EEEES4_S6_S8_SB_E8containsES4_.exit, label %.lr.ph.i.i.i

.lr.ph.i.i.i:                                     ; preds = %10, %22
  %21 = phi ptr [ %27, %22 ], [ %19, %10 ]
  %.01620.i.i.i = phi i32 [ %.016.i.i.i, %22 ], [ %.01618.i.i.i, %10 ]
  %.01519.i.i.i = phi i32 [ %23, %22 ], [ 1, %10 ]
  %.not.i.not.not = icmp ne ptr %21, inttoptr (i64 -4096 to ptr)
  br i1 %.not.i.not.not, label %22, label %_ZNK4llvm12DenseMapBaseINS_8DenseMapIPKNS_10BasicBlockESt4pairIjjENS_12DenseMapInfoIS4_vEENS_6detail12DenseMapPairIS4_S6_EEEES4_S6_S8_SB_E8containsES4_.exit

22:                                               ; preds = %.lr.ph.i.i.i
  %23 = add i32 %.01519.i.i.i, 1
  %24 = add i32 %.01519.i.i.i, %.01620.i.i.i
  %.016.i.i.i = and i32 %24, %16
  %25 = zext i32 %.016.i.i.i to i64
  %26 = getelementptr inbounds %"struct.llvm::detail::DenseMapPair.20", ptr %6, i64 %25
  %27 = load ptr, ptr %26, align 8
  %28 = icmp eq ptr %5, %27
  br i1 %28, label %_ZNK4llvm12DenseMapBaseINS_8DenseMapIPKNS_10BasicBlockESt4pairIjjENS_12DenseMapInfoIS4_vEENS_6detail12DenseMapPairIS4_S6_EEEES4_S6_S8_SB_E8containsES4_.exit, label %.lr.ph.i.i.i, !llvm.loop !6

_ZNK4llvm12DenseMapBaseINS_8DenseMapIPKNS_10BasicBlockESt4pairIjjENS_12DenseMapInfoIS4_vEENS_6detail12DenseMapPairIS4_S6_EEEES4_S6_S8_SB_E8containsES4_.exit: ; preds = %.lr.ph.i.i.i, %22, %2, %10
  %.0.i.i.i = phi i1 [ false, %2 ], [ true, %10 ], [ %.not.i.not.not, %22 ], [ %.not.i.not.not, %.lr.ph.i.i.i ]
  ret i1 %.0.i.i.i
}